ARM GAS  C:\Users\Mattia40\AppData\Local\Temp\ccR12ObH.s 			page 1


   1              		.syntax unified
   2              		.cpu cortex-m3
   3              		.fpu softvfp
   4              		.eabi_attribute 20, 1
   5              		.eabi_attribute 21, 1
   6              		.eabi_attribute 23, 3
   7              		.eabi_attribute 24, 1
   8              		.eabi_attribute 25, 1
   9              		.eabi_attribute 26, 1
  10              		.eabi_attribute 30, 1
  11              		.eabi_attribute 34, 1
  12              		.eabi_attribute 18, 4
  13              		.thumb
  14              		.syntax unified
  15              		.file	"I2C_Interface.c"
  16              		.text
  17              	.Ltext0:
  18              		.cfi_sections	.debug_frame
  19              		.section	.text.I2C_Peripheral_Start,"ax",%progbits
  20              		.align	2
  21              		.global	I2C_Peripheral_Start
  22              		.thumb
  23              		.thumb_func
  24              		.type	I2C_Peripheral_Start, %function
  25              	I2C_Peripheral_Start:
  26              	.LFB63:
  27              		.file 1 "I2C_Interface.c"
   1:I2C_Interface.c **** /*
   2:I2C_Interface.c **** * This file includes all the required source code to interface
   3:I2C_Interface.c **** * the I2C peripheral.
   4:I2C_Interface.c **** */
   5:I2C_Interface.c **** 
   6:I2C_Interface.c **** /**
   7:I2C_Interface.c **** *   \brief Value returned if device present on I2C bus.
   8:I2C_Interface.c **** */
   9:I2C_Interface.c **** #ifndef DEVICE_CONNECTED
  10:I2C_Interface.c ****     #define DEVICE_CONNECTED 1
  11:I2C_Interface.c **** #endif
  12:I2C_Interface.c **** 
  13:I2C_Interface.c **** /**
  14:I2C_Interface.c **** *   \brief Value returned if device not present on I2C bus.
  15:I2C_Interface.c **** */
  16:I2C_Interface.c **** #ifndef DEVICE_UNCONNECTED
  17:I2C_Interface.c ****     #define DEVICE_UNCONNECTED 0
  18:I2C_Interface.c **** #endif
  19:I2C_Interface.c **** 
  20:I2C_Interface.c **** #include "I2C_Interface.h" 
  21:I2C_Interface.c **** #include "I2C_Master.h"
  22:I2C_Interface.c **** #include "project.h"
  23:I2C_Interface.c **** 
  24:I2C_Interface.c **** 
  25:I2C_Interface.c ****     ErrorCode I2C_Peripheral_Start(void) 
  26:I2C_Interface.c ****     {
  28              		.loc 1 26 0
  29              		.cfi_startproc
  30              		@ args = 0, pretend = 0, frame = 0
  31              		@ frame_needed = 0, uses_anonymous_args = 0
ARM GAS  C:\Users\Mattia40\AppData\Local\Temp\ccR12ObH.s 			page 2


  32 0000 08B5     		push	{r3, lr}
  33              		.cfi_def_cfa_offset 8
  34              		.cfi_offset 3, -8
  35              		.cfi_offset 14, -4
  27:I2C_Interface.c ****         // Start I2C peripheral
  28:I2C_Interface.c ****         I2C_Master_Start();  
  36              		.loc 1 28 0
  37 0002 FFF7FEFF 		bl	I2C_Master_Start
  38              	.LVL0:
  29:I2C_Interface.c ****         
  30:I2C_Interface.c ****         // Return no error since start function does not return any error
  31:I2C_Interface.c ****         return NO_ERROR;
  32:I2C_Interface.c ****     }
  39              		.loc 1 32 0
  40 0006 0020     		movs	r0, #0
  41 0008 08BD     		pop	{r3, pc}
  42              		.cfi_endproc
  43              	.LFE63:
  44              		.size	I2C_Peripheral_Start, .-I2C_Peripheral_Start
  45 000a 00BF     		.section	.text.I2C_Peripheral_Stop,"ax",%progbits
  46              		.align	2
  47              		.global	I2C_Peripheral_Stop
  48              		.thumb
  49              		.thumb_func
  50              		.type	I2C_Peripheral_Stop, %function
  51              	I2C_Peripheral_Stop:
  52              	.LFB64:
  33:I2C_Interface.c ****     
  34:I2C_Interface.c ****     
  35:I2C_Interface.c ****     ErrorCode I2C_Peripheral_Stop(void)
  36:I2C_Interface.c ****     {
  53              		.loc 1 36 0
  54              		.cfi_startproc
  55              		@ args = 0, pretend = 0, frame = 0
  56              		@ frame_needed = 0, uses_anonymous_args = 0
  57 0000 08B5     		push	{r3, lr}
  58              		.cfi_def_cfa_offset 8
  59              		.cfi_offset 3, -8
  60              		.cfi_offset 14, -4
  37:I2C_Interface.c ****         // Stop I2C peripheral
  38:I2C_Interface.c ****         I2C_Master_Stop();
  61              		.loc 1 38 0
  62 0002 FFF7FEFF 		bl	I2C_Master_Stop
  63              	.LVL1:
  39:I2C_Interface.c ****         // Return no error since stop function does not return any error
  40:I2C_Interface.c ****         return NO_ERROR;
  41:I2C_Interface.c ****     }
  64              		.loc 1 41 0
  65 0006 0020     		movs	r0, #0
  66 0008 08BD     		pop	{r3, pc}
  67              		.cfi_endproc
  68              	.LFE64:
  69              		.size	I2C_Peripheral_Stop, .-I2C_Peripheral_Stop
  70 000a 00BF     		.section	.text.I2C_Peripheral_ReadRegister,"ax",%progbits
  71              		.align	2
  72              		.global	I2C_Peripheral_ReadRegister
  73              		.thumb
ARM GAS  C:\Users\Mattia40\AppData\Local\Temp\ccR12ObH.s 			page 3


  74              		.thumb_func
  75              		.type	I2C_Peripheral_ReadRegister, %function
  76              	I2C_Peripheral_ReadRegister:
  77              	.LFB65:
  42:I2C_Interface.c **** 
  43:I2C_Interface.c ****     ErrorCode I2C_Peripheral_ReadRegister(uint8_t device_address, 
  44:I2C_Interface.c ****                                             uint8_t register_address,
  45:I2C_Interface.c ****                                             uint8_t* data)
  46:I2C_Interface.c ****     {
  78              		.loc 1 46 0
  79              		.cfi_startproc
  80              		@ args = 0, pretend = 0, frame = 0
  81              		@ frame_needed = 0, uses_anonymous_args = 0
  82              	.LVL2:
  83 0000 F8B5     		push	{r3, r4, r5, r6, r7, lr}
  84              		.cfi_def_cfa_offset 24
  85              		.cfi_offset 3, -24
  86              		.cfi_offset 4, -20
  87              		.cfi_offset 5, -16
  88              		.cfi_offset 6, -12
  89              		.cfi_offset 7, -8
  90              		.cfi_offset 14, -4
  91 0002 0646     		mov	r6, r0
  92 0004 0D46     		mov	r5, r1
  93 0006 1746     		mov	r7, r2
  47:I2C_Interface.c ****         // Send start condition
  48:I2C_Interface.c ****         uint8_t error = I2C_Master_MasterSendStart(device_address,I2C_Master_WRITE_XFER_MODE);
  94              		.loc 1 48 0
  95 0008 0021     		movs	r1, #0
  96              	.LVL3:
  97 000a FFF7FEFF 		bl	I2C_Master_MasterSendStart
  98              	.LVL4:
  49:I2C_Interface.c ****         if (error == I2C_Master_MSTR_NO_ERROR)
  99              		.loc 1 49 0
 100 000e 0446     		mov	r4, r0
 101 0010 68B9     		cbnz	r0, .L6
  50:I2C_Interface.c ****         {
  51:I2C_Interface.c ****             // Write address of register to be read
  52:I2C_Interface.c ****             error = I2C_Master_MasterWriteByte(register_address);
 102              		.loc 1 52 0
 103 0012 2846     		mov	r0, r5
 104              	.LVL5:
 105 0014 FFF7FEFF 		bl	I2C_Master_MasterWriteByte
 106              	.LVL6:
  53:I2C_Interface.c ****             if (error == I2C_Master_MSTR_NO_ERROR)
 107              		.loc 1 53 0
 108 0018 0446     		mov	r4, r0
 109 001a 40B9     		cbnz	r0, .L6
  54:I2C_Interface.c ****             {
  55:I2C_Interface.c ****                 // Send restart condition
  56:I2C_Interface.c ****                 error = I2C_Master_MasterSendRestart(device_address, I2C_Master_READ_XFER_MODE);
 110              		.loc 1 56 0
 111 001c 0121     		movs	r1, #1
 112 001e 3046     		mov	r0, r6
 113              	.LVL7:
 114 0020 FFF7FEFF 		bl	I2C_Master_MasterSendRestart
 115              	.LVL8:
ARM GAS  C:\Users\Mattia40\AppData\Local\Temp\ccR12ObH.s 			page 4


  57:I2C_Interface.c ****                 if (error == I2C_Master_MSTR_NO_ERROR)
 116              		.loc 1 57 0
 117 0024 0446     		mov	r4, r0
 118 0026 10B9     		cbnz	r0, .L6
  58:I2C_Interface.c ****                 {
  59:I2C_Interface.c ****                     // Read data without acknowledgement
  60:I2C_Interface.c ****                     *data = I2C_Master_MasterReadByte(I2C_Master_NAK_DATA);
 119              		.loc 1 60 0
 120 0028 FFF7FEFF 		bl	I2C_Master_MasterReadByte
 121              	.LVL9:
 122 002c 3870     		strb	r0, [r7]
 123              	.L6:
 124              	.LVL10:
  61:I2C_Interface.c ****                 }
  62:I2C_Interface.c ****             }
  63:I2C_Interface.c ****         }
  64:I2C_Interface.c ****         // Send stop condition
  65:I2C_Interface.c ****         I2C_Master_MasterSendStop();
 125              		.loc 1 65 0
 126 002e FFF7FEFF 		bl	I2C_Master_MasterSendStop
 127              	.LVL11:
  66:I2C_Interface.c ****         // Return error code
  67:I2C_Interface.c ****         return error ? ERROR : NO_ERROR;
  68:I2C_Interface.c ****     }
 128              		.loc 1 68 0
 129 0032 201C     		adds	r0, r4, #0
 130 0034 18BF     		it	ne
 131 0036 0120     		movne	r0, #1
 132 0038 F8BD     		pop	{r3, r4, r5, r6, r7, pc}
 133              		.cfi_endproc
 134              	.LFE65:
 135              		.size	I2C_Peripheral_ReadRegister, .-I2C_Peripheral_ReadRegister
 136 003a 00BF     		.section	.text.I2C_Peripheral_ReadRegisterMulti,"ax",%progbits
 137              		.align	2
 138              		.global	I2C_Peripheral_ReadRegisterMulti
 139              		.thumb
 140              		.thumb_func
 141              		.type	I2C_Peripheral_ReadRegisterMulti, %function
 142              	I2C_Peripheral_ReadRegisterMulti:
 143              	.LFB66:
  69:I2C_Interface.c ****     
  70:I2C_Interface.c ****     ErrorCode I2C_Peripheral_ReadRegisterMulti(uint8_t device_address,
  71:I2C_Interface.c ****                                                 uint8_t register_address,
  72:I2C_Interface.c ****                                                 uint8_t register_count,
  73:I2C_Interface.c ****                                                 uint8_t* data)
  74:I2C_Interface.c ****     {
 144              		.loc 1 74 0
 145              		.cfi_startproc
 146              		@ args = 0, pretend = 0, frame = 0
 147              		@ frame_needed = 0, uses_anonymous_args = 0
 148              	.LVL12:
 149 0000 2DE9F041 		push	{r4, r5, r6, r7, r8, lr}
 150              		.cfi_def_cfa_offset 24
 151              		.cfi_offset 4, -24
 152              		.cfi_offset 5, -20
 153              		.cfi_offset 6, -16
 154              		.cfi_offset 7, -12
ARM GAS  C:\Users\Mattia40\AppData\Local\Temp\ccR12ObH.s 			page 5


 155              		.cfi_offset 8, -8
 156              		.cfi_offset 14, -4
 157 0004 8046     		mov	r8, r0
 158 0006 1746     		mov	r7, r2
 159 0008 1E46     		mov	r6, r3
 160              	.LVL13:
  75:I2C_Interface.c ****         uint8 i=0;
  76:I2C_Interface.c ****         //from datasheet we read that to apply the multi-read funcion, the most significant bit mus
  77:I2C_Interface.c ****         register_address=register_address|10000000;
 161              		.loc 1 77 0
 162 000a 41F08004 		orr	r4, r1, #128
 163              	.LVL14:
  78:I2C_Interface.c ****         // Send start condition
  79:I2C_Interface.c ****         uint8_t error= I2C_Master_MasterSendStart(device_address,I2C_Master_WRITE_XFER_MODE);
 164              		.loc 1 79 0
 165 000e 0021     		movs	r1, #0
 166 0010 FFF7FEFF 		bl	I2C_Master_MasterSendStart
 167              	.LVL15:
  80:I2C_Interface.c ****         if (error == I2C_Master_MSTR_NO_ERROR)
 168              		.loc 1 80 0
 169 0014 0546     		mov	r5, r0
 170 0016 C8B9     		cbnz	r0, .L9
  81:I2C_Interface.c ****         {   
  82:I2C_Interface.c ****             
  83:I2C_Interface.c ****             // Write address of register to be read
  84:I2C_Interface.c ****             error = I2C_Master_MasterWriteByte(register_address+i);
 171              		.loc 1 84 0
 172 0018 2046     		mov	r0, r4
 173              	.LVL16:
 174 001a FFF7FEFF 		bl	I2C_Master_MasterWriteByte
 175              	.LVL17:
  85:I2C_Interface.c ****             if (error == I2C_Master_MSTR_NO_ERROR)
 176              		.loc 1 85 0
 177 001e 0546     		mov	r5, r0
 178 0020 A0B9     		cbnz	r0, .L9
  86:I2C_Interface.c ****             {
  87:I2C_Interface.c ****                 
  88:I2C_Interface.c ****                 // Send restart condition
  89:I2C_Interface.c ****                 error = I2C_Master_MasterSendRestart(device_address, I2C_Master_READ_XFER_MODE);
 179              		.loc 1 89 0
 180 0022 0121     		movs	r1, #1
 181 0024 4046     		mov	r0, r8
 182              	.LVL18:
 183 0026 FFF7FEFF 		bl	I2C_Master_MasterSendRestart
 184              	.LVL19:
  90:I2C_Interface.c ****                 if (error == I2C_Master_MSTR_NO_ERROR)
 185              		.loc 1 90 0
 186 002a 0546     		mov	r5, r0
 187 002c 38B1     		cbz	r0, .L12
 188 002e 0DE0     		b	.L9
 189              	.LVL20:
 190              	.L11:
  91:I2C_Interface.c ****                 {
  92:I2C_Interface.c ****                     // Read data with acknowledgement)
  93:I2C_Interface.c ****                     /*
  94:I2C_Interface.c ****                     *   it is lower then register_count because when you reah i=register count, you
  95:I2C_Interface.c ****                     *   exit from the fro loop and send a NAK
ARM GAS  C:\Users\Mattia40\AppData\Local\Temp\ccR12ObH.s 			page 6


  96:I2C_Interface.c ****                     */
  97:I2C_Interface.c ****                     for(i=0;i<register_count;i++)
  98:I2C_Interface.c ****                     {
  99:I2C_Interface.c ****                         //every time you receive an ACK, you continue to read value
 100:I2C_Interface.c ****                         *(data+i) = I2C_Master_MasterReadByte(I2C_Master_ACK_DATA);
 191              		.loc 1 100 0 discriminator 3
 192 0030 0120     		movs	r0, #1
 193 0032 FFF7FEFF 		bl	I2C_Master_MasterReadByte
 194              	.LVL21:
 195 0036 3055     		strb	r0, [r6, r4]
  97:I2C_Interface.c ****                     {
 196              		.loc 1 97 0 discriminator 3
 197 0038 0134     		adds	r4, r4, #1
 198              	.LVL22:
 199 003a E4B2     		uxtb	r4, r4
 200              	.LVL23:
 201 003c 00E0     		b	.L10
 202              	.LVL24:
 203              	.L12:
 204 003e 0024     		movs	r4, #0
 205              	.LVL25:
 206              	.L10:
  97:I2C_Interface.c ****                     {
 207              		.loc 1 97 0 is_stmt 0 discriminator 1
 208 0040 BC42     		cmp	r4, r7
 209 0042 F5D3     		bcc	.L11
 101:I2C_Interface.c ****                     }
 102:I2C_Interface.c ****                     //once you receive a NAK, the operation is stopped
 103:I2C_Interface.c ****                     *(data+i) = I2C_Master_MasterReadByte(I2C_Master_NAK_DATA);   
 210              		.loc 1 103 0 is_stmt 1
 211 0044 0020     		movs	r0, #0
 212 0046 FFF7FEFF 		bl	I2C_Master_MasterReadByte
 213              	.LVL26:
 214 004a 3055     		strb	r0, [r6, r4]
 215              	.LVL27:
 216              	.L9:
 104:I2C_Interface.c ****                 } 
 105:I2C_Interface.c ****             }
 106:I2C_Interface.c ****             
 107:I2C_Interface.c ****         }
 108:I2C_Interface.c ****         
 109:I2C_Interface.c ****         // Send stop condition
 110:I2C_Interface.c ****         I2C_Master_MasterSendStop();
 217              		.loc 1 110 0
 218 004c FFF7FEFF 		bl	I2C_Master_MasterSendStop
 219              	.LVL28:
 111:I2C_Interface.c ****          
 112:I2C_Interface.c ****         // Return error code
 113:I2C_Interface.c ****         
 114:I2C_Interface.c ****         return error ? ERROR : NO_ERROR;
 115:I2C_Interface.c ****         
 116:I2C_Interface.c ****     }
 220              		.loc 1 116 0
 221 0050 281C     		adds	r0, r5, #0
 222 0052 18BF     		it	ne
 223 0054 0120     		movne	r0, #1
 224 0056 BDE8F081 		pop	{r4, r5, r6, r7, r8, pc}
ARM GAS  C:\Users\Mattia40\AppData\Local\Temp\ccR12ObH.s 			page 7


 225              		.cfi_endproc
 226              	.LFE66:
 227              		.size	I2C_Peripheral_ReadRegisterMulti, .-I2C_Peripheral_ReadRegisterMulti
 228 005a 00BF     		.section	.text.I2C_Peripheral_WriteRegister,"ax",%progbits
 229              		.align	2
 230              		.global	I2C_Peripheral_WriteRegister
 231              		.thumb
 232              		.thumb_func
 233              		.type	I2C_Peripheral_WriteRegister, %function
 234              	I2C_Peripheral_WriteRegister:
 235              	.LFB67:
 117:I2C_Interface.c ****     
 118:I2C_Interface.c ****     ErrorCode I2C_Peripheral_WriteRegister(uint8_t device_address,
 119:I2C_Interface.c ****                                             uint8_t register_address,
 120:I2C_Interface.c ****                                             uint8_t data)
 121:I2C_Interface.c ****     {
 236              		.loc 1 121 0
 237              		.cfi_startproc
 238              		@ args = 0, pretend = 0, frame = 0
 239              		@ frame_needed = 0, uses_anonymous_args = 0
 240              	.LVL29:
 241 0000 70B5     		push	{r4, r5, r6, lr}
 242              		.cfi_def_cfa_offset 16
 243              		.cfi_offset 4, -16
 244              		.cfi_offset 5, -12
 245              		.cfi_offset 6, -8
 246              		.cfi_offset 14, -4
 247 0002 0D46     		mov	r5, r1
 248 0004 1646     		mov	r6, r2
 122:I2C_Interface.c ****         // Send start condition
 123:I2C_Interface.c ****         uint8_t error = I2C_Master_MasterSendStart(device_address, I2C_Master_WRITE_XFER_MODE);
 249              		.loc 1 123 0
 250 0006 0021     		movs	r1, #0
 251              	.LVL30:
 252 0008 FFF7FEFF 		bl	I2C_Master_MasterSendStart
 253              	.LVL31:
 124:I2C_Interface.c ****         if (error == I2C_Master_MSTR_NO_ERROR)
 254              		.loc 1 124 0
 255 000c 0446     		mov	r4, r0
 256 000e 40B9     		cbnz	r0, .L15
 125:I2C_Interface.c ****         {
 126:I2C_Interface.c ****             // Write register address
 127:I2C_Interface.c ****             error = I2C_Master_MasterWriteByte(register_address);
 257              		.loc 1 127 0
 258 0010 2846     		mov	r0, r5
 259              	.LVL32:
 260 0012 FFF7FEFF 		bl	I2C_Master_MasterWriteByte
 261              	.LVL33:
 128:I2C_Interface.c ****             if (error == I2C_Master_MSTR_NO_ERROR)
 262              		.loc 1 128 0
 263 0016 0446     		mov	r4, r0
 264 0018 18B9     		cbnz	r0, .L15
 129:I2C_Interface.c ****             {
 130:I2C_Interface.c ****                 // Write byte of interest
 131:I2C_Interface.c ****                 error = I2C_Master_MasterWriteByte(data);
 265              		.loc 1 131 0
 266 001a 3046     		mov	r0, r6
ARM GAS  C:\Users\Mattia40\AppData\Local\Temp\ccR12ObH.s 			page 8


 267              	.LVL34:
 268 001c FFF7FEFF 		bl	I2C_Master_MasterWriteByte
 269              	.LVL35:
 270 0020 0446     		mov	r4, r0
 271              	.LVL36:
 272              	.L15:
 132:I2C_Interface.c ****             }
 133:I2C_Interface.c ****         }
 134:I2C_Interface.c ****         // Send stop condition
 135:I2C_Interface.c ****         I2C_Master_MasterSendStop();
 273              		.loc 1 135 0
 274 0022 FFF7FEFF 		bl	I2C_Master_MasterSendStop
 275              	.LVL37:
 136:I2C_Interface.c ****         // Return error code
 137:I2C_Interface.c ****         return error ? ERROR : NO_ERROR;
 138:I2C_Interface.c ****     }
 276              		.loc 1 138 0
 277 0026 201C     		adds	r0, r4, #0
 278 0028 18BF     		it	ne
 279 002a 0120     		movne	r0, #1
 280 002c 70BD     		pop	{r4, r5, r6, pc}
 281              		.cfi_endproc
 282              	.LFE67:
 283              		.size	I2C_Peripheral_WriteRegister, .-I2C_Peripheral_WriteRegister
 284 002e 00BF     		.section	.text.I2C_Peripheral_WriteRegisterMulti,"ax",%progbits
 285              		.align	2
 286              		.global	I2C_Peripheral_WriteRegisterMulti
 287              		.thumb
 288              		.thumb_func
 289              		.type	I2C_Peripheral_WriteRegisterMulti, %function
 290              	I2C_Peripheral_WriteRegisterMulti:
 291              	.LFB68:
 139:I2C_Interface.c ****     
 140:I2C_Interface.c ****     ErrorCode I2C_Peripheral_WriteRegisterMulti(uint8_t device_address,
 141:I2C_Interface.c ****                                             uint8_t register_address,
 142:I2C_Interface.c ****                                             uint8_t register_count,
 143:I2C_Interface.c ****                                             uint8_t* data)
 144:I2C_Interface.c ****     {
 292              		.loc 1 144 0
 293              		.cfi_startproc
 294              		@ args = 0, pretend = 0, frame = 0
 295              		@ frame_needed = 0, uses_anonymous_args = 0
 296              	.LVL38:
 297 0000 F8B5     		push	{r3, r4, r5, r6, r7, lr}
 298              		.cfi_def_cfa_offset 24
 299              		.cfi_offset 3, -24
 300              		.cfi_offset 4, -20
 301              		.cfi_offset 5, -16
 302              		.cfi_offset 6, -12
 303              		.cfi_offset 7, -8
 304              		.cfi_offset 14, -4
 305 0002 1646     		mov	r6, r2
 306 0004 1F46     		mov	r7, r3
 307              	.LVL39:
 145:I2C_Interface.c ****         uint8 i=0;
 146:I2C_Interface.c ****         //from datasheet we read that to apply the multi-write funcion, the most significant bit mu
 147:I2C_Interface.c ****         register_address=register_address|10000000;
ARM GAS  C:\Users\Mattia40\AppData\Local\Temp\ccR12ObH.s 			page 9


 308              		.loc 1 147 0
 309 0006 41F08004 		orr	r4, r1, #128
 310              	.LVL40:
 148:I2C_Interface.c ****         // Send start condition
 149:I2C_Interface.c ****         uint8_t error = I2C_Master_MasterSendStart(device_address, I2C_Master_WRITE_XFER_MODE);
 311              		.loc 1 149 0
 312 000a 0021     		movs	r1, #0
 313 000c FFF7FEFF 		bl	I2C_Master_MasterSendStart
 314              	.LVL41:
 150:I2C_Interface.c ****         if (error == I2C_Master_MSTR_NO_ERROR)
 315              		.loc 1 150 0
 316 0010 0546     		mov	r5, r0
 317 0012 78B9     		cbnz	r0, .L18
 151:I2C_Interface.c ****         {
 152:I2C_Interface.c ****             // Write register address
 153:I2C_Interface.c ****             error = I2C_Master_MasterWriteByte(register_address);
 318              		.loc 1 153 0
 319 0014 2046     		mov	r0, r4
 320              	.LVL42:
 321 0016 FFF7FEFF 		bl	I2C_Master_MasterWriteByte
 322              	.LVL43:
 154:I2C_Interface.c ****             if (error == I2C_Master_MSTR_NO_ERROR)
 323              		.loc 1 154 0
 324 001a 0546     		mov	r5, r0
 325 001c 38B1     		cbz	r0, .L21
 326 001e 09E0     		b	.L18
 327              	.LVL44:
 328              	.L20:
 155:I2C_Interface.c ****             {
 156:I2C_Interface.c ****                 // Write byte of interest
 157:I2C_Interface.c ****                 /*
 158:I2C_Interface.c ****                 *   it is <= then register_count because when you want to write over all the regist
 159:I2C_Interface.c ****                 */
 160:I2C_Interface.c ****                 for(i=0;i<=register_count;i++)//minore uguale per prendere tutti i valori
 161:I2C_Interface.c ****                 {
 162:I2C_Interface.c ****                     error = I2C_Master_MasterWriteByte(*(data+i));
 329              		.loc 1 162 0 discriminator 3
 330 0020 385D     		ldrb	r0, [r7, r4]	@ zero_extendqisi2
 331 0022 FFF7FEFF 		bl	I2C_Master_MasterWriteByte
 332              	.LVL45:
 333 0026 0546     		mov	r5, r0
 334              	.LVL46:
 160:I2C_Interface.c ****                 {
 335              		.loc 1 160 0 discriminator 3
 336 0028 0134     		adds	r4, r4, #1
 337              	.LVL47:
 338 002a E4B2     		uxtb	r4, r4
 339              	.LVL48:
 340 002c 00E0     		b	.L19
 341              	.LVL49:
 342              	.L21:
 343 002e 0024     		movs	r4, #0
 344              	.LVL50:
 345              	.L19:
 160:I2C_Interface.c ****                 {
 346              		.loc 1 160 0 is_stmt 0 discriminator 1
 347 0030 B442     		cmp	r4, r6
ARM GAS  C:\Users\Mattia40\AppData\Local\Temp\ccR12ObH.s 			page 10


 348 0032 F5D9     		bls	.L20
 349              	.LVL51:
 350              	.L18:
 163:I2C_Interface.c ****                 }
 164:I2C_Interface.c ****                 
 165:I2C_Interface.c ****             }
 166:I2C_Interface.c ****         }
 167:I2C_Interface.c ****         // Send stop condition
 168:I2C_Interface.c ****         I2C_Master_MasterSendStop();
 351              		.loc 1 168 0 is_stmt 1
 352 0034 FFF7FEFF 		bl	I2C_Master_MasterSendStop
 353              	.LVL52:
 169:I2C_Interface.c ****         // Return error code
 170:I2C_Interface.c ****         return error ? ERROR : NO_ERROR;
 171:I2C_Interface.c ****     }
 354              		.loc 1 171 0
 355 0038 281C     		adds	r0, r5, #0
 356 003a 18BF     		it	ne
 357 003c 0120     		movne	r0, #1
 358 003e F8BD     		pop	{r3, r4, r5, r6, r7, pc}
 359              		.cfi_endproc
 360              	.LFE68:
 361              		.size	I2C_Peripheral_WriteRegisterMulti, .-I2C_Peripheral_WriteRegisterMulti
 362              		.section	.text.I2C_Peripheral_IsDeviceConnected,"ax",%progbits
 363              		.align	2
 364              		.global	I2C_Peripheral_IsDeviceConnected
 365              		.thumb
 366              		.thumb_func
 367              		.type	I2C_Peripheral_IsDeviceConnected, %function
 368              	I2C_Peripheral_IsDeviceConnected:
 369              	.LFB69:
 172:I2C_Interface.c ****     
 173:I2C_Interface.c ****     
 174:I2C_Interface.c ****     uint8_t I2C_Peripheral_IsDeviceConnected(uint8_t device_address)
 175:I2C_Interface.c ****     {
 370              		.loc 1 175 0
 371              		.cfi_startproc
 372              		@ args = 0, pretend = 0, frame = 0
 373              		@ frame_needed = 0, uses_anonymous_args = 0
 374              	.LVL53:
 375 0000 10B5     		push	{r4, lr}
 376              		.cfi_def_cfa_offset 8
 377              		.cfi_offset 4, -8
 378              		.cfi_offset 14, -4
 176:I2C_Interface.c ****         // Send a start condition followed by a stop condition
 177:I2C_Interface.c ****         uint8_t error = I2C_Master_MasterSendStart(device_address, I2C_Master_WRITE_XFER_MODE);
 379              		.loc 1 177 0
 380 0002 0021     		movs	r1, #0
 381 0004 FFF7FEFF 		bl	I2C_Master_MasterSendStart
 382              	.LVL54:
 383 0008 0446     		mov	r4, r0
 384              	.LVL55:
 178:I2C_Interface.c ****         I2C_Master_MasterSendStop();
 385              		.loc 1 178 0
 386 000a FFF7FEFF 		bl	I2C_Master_MasterSendStop
 387              	.LVL56:
 179:I2C_Interface.c ****         // If no error generated during stop, device is connected
ARM GAS  C:\Users\Mattia40\AppData\Local\Temp\ccR12ObH.s 			page 11


 180:I2C_Interface.c ****         if (error == I2C_Master_MSTR_NO_ERROR)
 388              		.loc 1 180 0
 389 000e 0CB9     		cbnz	r4, .L25
 181:I2C_Interface.c ****         {
 182:I2C_Interface.c ****             return DEVICE_CONNECTED;
 390              		.loc 1 182 0
 391 0010 0120     		movs	r0, #1
 392 0012 10BD     		pop	{r4, pc}
 393              	.LVL57:
 394              	.L25:
 183:I2C_Interface.c ****         }
 184:I2C_Interface.c ****         return DEVICE_UNCONNECTED;
 395              		.loc 1 184 0
 396 0014 0020     		movs	r0, #0
 185:I2C_Interface.c ****     }
 397              		.loc 1 185 0
 398 0016 10BD     		pop	{r4, pc}
 399              		.cfi_endproc
 400              	.LFE69:
 401              		.size	I2C_Peripheral_IsDeviceConnected, .-I2C_Peripheral_IsDeviceConnected
 402              		.text
 403              	.Letext0:
 404              		.file 2 "c:\\program files (x86)\\cypress\\psoc creator\\4.3\\psoc creator\\import\\gnu\\arm\\5.4.
 405              		.file 3 "c:\\program files (x86)\\cypress\\psoc creator\\4.3\\psoc creator\\import\\gnu\\arm\\5.4.
 406              		.file 4 "Generated_Source\\PSoC5/cytypes.h"
 407              		.file 5 "ErrorCodes.h"
 408              		.file 6 "Generated_Source\\PSoC5/I2C_Master.h"
 409              		.file 7 "Generated_Source\\PSoC5/core_cm3.h"