ARM GAS  C:\Users\Mattia40\AppData\Local\Temp\ccBW5mND.s 			page 1


   1              		.syntax unified
   2              		.cpu cortex-m3
   3              		.fpu softvfp
   4              		.eabi_attribute 20, 1
   5              		.eabi_attribute 21, 1
   6              		.eabi_attribute 23, 3
   7              		.eabi_attribute 24, 1
   8              		.eabi_attribute 25, 1
   9              		.eabi_attribute 26, 1
  10              		.eabi_attribute 30, 1
  11              		.eabi_attribute 34, 1
  12              		.eabi_attribute 18, 4
  13              		.thumb
  14              		.syntax unified
  15              		.file	"main.c"
  16              		.text
  17              	.Ltext0:
  18              		.cfi_sections	.debug_frame
  19              		.global	__aeabi_i2f
  20              		.global	__aeabi_f2d
  21              		.global	__aeabi_dmul
  22              		.global	__aeabi_d2f
  23              		.section	.text.main,"ax",%progbits
  24              		.align	2
  25              		.global	main
  26              		.thumb
  27              		.thumb_func
  28              		.type	main, %function
  29              	main:
  30              	.LFB64:
  31              		.file 1 "main.c"
   1:main.c        **** /**
   2:main.c        **** *
   3:main.c        **** * In this project we set up a I2C master device with
   4:main.c        **** * to understand the I2C protocol and communicate with a
   5:main.c        **** * a I2C Slave device (LIS3DH Accelerometer).
   6:main.c        **** *
   7:main.c        **** * we have to use the accelerometer in High resolution mode  
   8:main.c        **** * in order to acquire the data relating to the acceleration in 
   9:main.c        **** * the three directions. Then we visualize values with
  10:main.c        **** * Bridge Control Panel
  11:main.c        **** *
  12:main.c        **** * For the comunication we use a baud rate of 19200 because
  13:main.c        **** * we have to sample with a frequency of 100Hz, so we have 
  14:main.c        **** * 100 sample per second; we have to send to the 
  15:main.c        **** * UART an array with size of 14. So 8*14*100=11200 that is higher
  16:main.c        **** * than 9600, so we use 19200
  17:main.c        **** */
  18:main.c        **** 
  19:main.c        **** // Include required header files
  20:main.c        **** #include "I2C_Interface.h"
  21:main.c        **** #include "project.h"
  22:main.c        **** #include "stdio.h"
  23:main.c        **** #include "Defines.h"
  24:main.c        **** 
  25:main.c        **** 
  26:main.c        **** int main(void)
ARM GAS  C:\Users\Mattia40\AppData\Local\Temp\ccBW5mND.s 			page 2


  27:main.c        **** {
  32              		.loc 1 27 0
  33              		.cfi_startproc
  34              		@ args = 0, pretend = 0, frame = 96
  35              		@ frame_needed = 0, uses_anonymous_args = 0
  36 0000 30B5     		push	{r4, r5, lr}
  37              		.cfi_def_cfa_offset 12
  38              		.cfi_offset 4, -12
  39              		.cfi_offset 5, -8
  40              		.cfi_offset 14, -4
  41 0002 99B0     		sub	sp, sp, #100
  42              		.cfi_def_cfa_offset 112
  28:main.c        ****     CyGlobalIntEnable; /* Enable global interrupts. */
  43              		.loc 1 28 0
  44              		.syntax unified
  45              	@ 28 "main.c" 1
  46 0004 62B6     		CPSIE   i
  47              	@ 0 "" 2
  29:main.c        **** 
  30:main.c        ****     /* Place your initialization/startup code here (e.g. MyInst_Start()) */
  31:main.c        ****     I2C_Peripheral_Start();
  48              		.loc 1 31 0
  49              		.thumb
  50              		.syntax unified
  51 0006 FFF7FEFF 		bl	I2C_Peripheral_Start
  52              	.LVL0:
  32:main.c        ****     UART_Debug_Start();
  53              		.loc 1 32 0
  54 000a FFF7FEFF 		bl	UART_Debug_Start
  55              	.LVL1:
  33:main.c        ****     
  34:main.c        ****     CyDelay(5); //"The boot procedure is complete about 5 milliseconds after device power-up."
  56              		.loc 1 34 0
  57 000e 0520     		movs	r0, #5
  58 0010 FFF7FEFF 		bl	CyDelay
  59              	.LVL2:
  60              	.LBB2:
  35:main.c        ****     
  36:main.c        ****     // String to print out messages on the UART
  37:main.c        ****     char message[50];
  38:main.c        **** 
  39:main.c        ****     // Check which devices are present on the I2C bus
  40:main.c        ****     for (int i = 0 ; i < 128; i++)
  61              		.loc 1 40 0
  62 0014 0024     		movs	r4, #0
  63 0016 0CE0     		b	.L2
  64              	.LVL3:
  65              	.L4:
  41:main.c        ****     {
  42:main.c        ****         if (I2C_Peripheral_IsDeviceConnected(i))
  66              		.loc 1 42 0
  67 0018 E0B2     		uxtb	r0, r4
  68 001a FFF7FEFF 		bl	I2C_Peripheral_IsDeviceConnected
  69              	.LVL4:
  70 001e 38B1     		cbz	r0, .L3
  43:main.c        ****         {
  44:main.c        ****             // print out the address is hex format
ARM GAS  C:\Users\Mattia40\AppData\Local\Temp\ccBW5mND.s 			page 3


  45:main.c        ****             sprintf(message, "Device 0x%02X is connected\r\n", i);
  71              		.loc 1 45 0
  72 0020 2246     		mov	r2, r4
  73 0022 A149     		ldr	r1, .L23+8
  74 0024 0BA8     		add	r0, sp, #44
  75 0026 FFF7FEFF 		bl	sprintf
  76              	.LVL5:
  46:main.c        ****             UART_Debug_PutString(message); 
  77              		.loc 1 46 0
  78 002a 0BA8     		add	r0, sp, #44
  79 002c FFF7FEFF 		bl	UART_Debug_PutString
  80              	.LVL6:
  81              	.L3:
  40:main.c        ****     {
  82              		.loc 1 40 0 discriminator 2
  83 0030 0134     		adds	r4, r4, #1
  84              	.LVL7:
  85              	.L2:
  40:main.c        ****     {
  86              		.loc 1 40 0 is_stmt 0 discriminator 1
  87 0032 7F2C     		cmp	r4, #127
  88 0034 F0DD     		ble	.L4
  89              	.LBE2:
  47:main.c        ****         }
  48:main.c        ****         
  49:main.c        ****     }
  50:main.c        ****     
  51:main.c        ****     /******************************************/
  52:main.c        ****     /*            I2C Reading                 */
  53:main.c        ****     /******************************************/
  54:main.c        ****     
  55:main.c        ****     /* Read WHO AM I REGISTER register */
  56:main.c        ****     uint8_t who_am_i_reg;
  57:main.c        ****     ErrorCode error = I2C_Peripheral_ReadRegister(LIS3DH_DEVICE_ADDRESS,
  90              		.loc 1 57 0 is_stmt 1
  91 0036 0DF12B02 		add	r2, sp, #43
  92 003a 0F21     		movs	r1, #15
  93 003c 1820     		movs	r0, #24
  94 003e FFF7FEFF 		bl	I2C_Peripheral_ReadRegister
  95              	.LVL8:
  58:main.c        ****                                                   LIS3DH_WHO_AM_I_REG_ADDR, 
  59:main.c        ****                                                   &who_am_i_reg);
  60:main.c        ****     if (error == NO_ERROR)
  96              		.loc 1 60 0
  97 0042 48B9     		cbnz	r0, .L5
  61:main.c        ****     {
  62:main.c        ****         sprintf(message, "WHO AM I REG: 0x%02X [Expected: 0x33]\r\n", who_am_i_reg);
  98              		.loc 1 62 0
  99 0044 9DF82B20 		ldrb	r2, [sp, #43]	@ zero_extendqisi2
 100 0048 9849     		ldr	r1, .L23+12
 101 004a 0BA8     		add	r0, sp, #44
 102              	.LVL9:
 103 004c FFF7FEFF 		bl	sprintf
 104              	.LVL10:
  63:main.c        ****         UART_Debug_PutString(message); 
 105              		.loc 1 63 0
 106 0050 0BA8     		add	r0, sp, #44
ARM GAS  C:\Users\Mattia40\AppData\Local\Temp\ccBW5mND.s 			page 4


 107 0052 FFF7FEFF 		bl	UART_Debug_PutString
 108              	.LVL11:
 109 0056 02E0     		b	.L6
 110              	.LVL12:
 111              	.L5:
  64:main.c        ****     }
  65:main.c        ****     else
  66:main.c        ****     {
  67:main.c        ****         UART_Debug_PutString("Error occurred during I2C comm\r\n");   
 112              		.loc 1 67 0
 113 0058 9548     		ldr	r0, .L23+16
 114              	.LVL13:
 115 005a FFF7FEFF 		bl	UART_Debug_PutString
 116              	.LVL14:
 117              	.L6:
  68:main.c        ****     }
  69:main.c        ****     
  70:main.c        ****     /*      I2C Reading Status Register       */
  71:main.c        ****     
  72:main.c        ****     uint8_t status_register; 
  73:main.c        ****     error = I2C_Peripheral_ReadRegister(LIS3DH_DEVICE_ADDRESS,
 118              		.loc 1 73 0
 119 005e 0DF12A02 		add	r2, sp, #42
 120 0062 2721     		movs	r1, #39
 121 0064 1820     		movs	r0, #24
 122 0066 FFF7FEFF 		bl	I2C_Peripheral_ReadRegister
 123              	.LVL15:
  74:main.c        ****                                         LIS3DH_STATUS_REG,
  75:main.c        ****                                         &status_register);
  76:main.c        ****     
  77:main.c        ****     if (error == NO_ERROR)
 124              		.loc 1 77 0
 125 006a 48B9     		cbnz	r0, .L7
  78:main.c        ****     {
  79:main.c        ****         sprintf(message, "STATUS REGISTER: 0x%02X\r\n", status_register);
 126              		.loc 1 79 0
 127 006c 9DF82A20 		ldrb	r2, [sp, #42]	@ zero_extendqisi2
 128 0070 9049     		ldr	r1, .L23+20
 129 0072 0BA8     		add	r0, sp, #44
 130              	.LVL16:
 131 0074 FFF7FEFF 		bl	sprintf
 132              	.LVL17:
  80:main.c        ****         UART_Debug_PutString(message); 
 133              		.loc 1 80 0
 134 0078 0BA8     		add	r0, sp, #44
 135 007a FFF7FEFF 		bl	UART_Debug_PutString
 136              	.LVL18:
 137 007e 02E0     		b	.L8
 138              	.LVL19:
 139              	.L7:
  81:main.c        ****     }
  82:main.c        ****     else
  83:main.c        ****     {
  84:main.c        ****         UART_Debug_PutString("Error occurred during I2C comm to read status register\r\n");   
 140              		.loc 1 84 0
 141 0080 8D48     		ldr	r0, .L23+24
 142              	.LVL20:
ARM GAS  C:\Users\Mattia40\AppData\Local\Temp\ccBW5mND.s 			page 5


 143 0082 FFF7FEFF 		bl	UART_Debug_PutString
 144              	.LVL21:
 145              	.L8:
  85:main.c        ****     }
  86:main.c        ****      
  87:main.c        ****     /******************************************/
  88:main.c        ****     /*        Read Control Register 1         */
  89:main.c        ****     /******************************************/
  90:main.c        ****     uint8_t ctrl_reg1; 
  91:main.c        ****     error = I2C_Peripheral_ReadRegister(LIS3DH_DEVICE_ADDRESS,
 146              		.loc 1 91 0
 147 0086 0DF12902 		add	r2, sp, #41
 148 008a 2021     		movs	r1, #32
 149 008c 1820     		movs	r0, #24
 150 008e FFF7FEFF 		bl	I2C_Peripheral_ReadRegister
 151              	.LVL22:
  92:main.c        ****                                         LIS3DH_CTRL_REG1,
  93:main.c        ****                                         &ctrl_reg1);
  94:main.c        ****     
  95:main.c        ****     if (error == NO_ERROR)
 152              		.loc 1 95 0
 153 0092 48B9     		cbnz	r0, .L9
  96:main.c        ****     {
  97:main.c        ****         sprintf(message, "CONTROL REGISTER 1: 0x%02X\r\n", ctrl_reg1);
 154              		.loc 1 97 0
 155 0094 9DF82920 		ldrb	r2, [sp, #41]	@ zero_extendqisi2
 156 0098 8849     		ldr	r1, .L23+28
 157 009a 0BA8     		add	r0, sp, #44
 158              	.LVL23:
 159 009c FFF7FEFF 		bl	sprintf
 160              	.LVL24:
  98:main.c        ****         UART_Debug_PutString(message); 
 161              		.loc 1 98 0
 162 00a0 0BA8     		add	r0, sp, #44
 163 00a2 FFF7FEFF 		bl	UART_Debug_PutString
 164              	.LVL25:
 165 00a6 02E0     		b	.L10
 166              	.LVL26:
 167              	.L9:
  99:main.c        ****     }
 100:main.c        ****     else
 101:main.c        ****     {
 102:main.c        ****         UART_Debug_PutString("Error occurred during I2C comm to read control register 1\r\n");   
 168              		.loc 1 102 0
 169 00a8 8548     		ldr	r0, .L23+32
 170              	.LVL27:
 171 00aa FFF7FEFF 		bl	UART_Debug_PutString
 172              	.LVL28:
 173              	.L10:
 103:main.c        ****     }
 104:main.c        ****     
 105:main.c        ****     /******************************************/
 106:main.c        ****     /*            I2C Writing                 */
 107:main.c        ****     /******************************************/
 108:main.c        ****     
 109:main.c        ****         
 110:main.c        ****     UART_Debug_PutString("\r\nWriting new values..\r\n");
ARM GAS  C:\Users\Mattia40\AppData\Local\Temp\ccBW5mND.s 			page 6


 174              		.loc 1 110 0
 175 00ae 8548     		ldr	r0, .L23+36
 176 00b0 FFF7FEFF 		bl	UART_Debug_PutString
 177              	.LVL29:
 111:main.c        ****     
 112:main.c        ****     if (ctrl_reg1 != LIS3DH_NORMAL_MODE_CTRL_REG1)//LP a 0
 178              		.loc 1 112 0
 179 00b4 9DF82930 		ldrb	r3, [sp, #41]	@ zero_extendqisi2
 180 00b8 572B     		cmp	r3, #87
 181 00ba 14D0     		beq	.L11
 113:main.c        ****     {
 114:main.c        ****         /**
 115:main.c        ****         *   \brief Hex value to set the frequency of the accelerator in high resolution mode (the h
 116:main.c        ****         *   is set by leaving low the bit Lpen in the CTRL_REG1 and high the bit HR in the CTRL_REG
 117:main.c        ****         */
 118:main.c        ****         ctrl_reg1 = LIS3DH_NORMAL_MODE_CTRL_REG1;
 182              		.loc 1 118 0
 183 00bc 5722     		movs	r2, #87
 184 00be 8DF82920 		strb	r2, [sp, #41]
 119:main.c        ****     
 120:main.c        ****         error = I2C_Peripheral_WriteRegister(LIS3DH_DEVICE_ADDRESS,
 185              		.loc 1 120 0
 186 00c2 2021     		movs	r1, #32
 187 00c4 1820     		movs	r0, #24
 188 00c6 FFF7FEFF 		bl	I2C_Peripheral_WriteRegister
 189              	.LVL30:
 121:main.c        ****                                              LIS3DH_CTRL_REG1,
 122:main.c        ****                                              ctrl_reg1);
 123:main.c        ****     
 124:main.c        ****         if (error == NO_ERROR)
 190              		.loc 1 124 0
 191 00ca 48B9     		cbnz	r0, .L12
 125:main.c        ****         {
 126:main.c        ****             sprintf(message, "CONTROL REGISTER 1 successfully written as: 0x%02X\r\n", ctrl_reg1);
 192              		.loc 1 126 0
 193 00cc 9DF82920 		ldrb	r2, [sp, #41]	@ zero_extendqisi2
 194 00d0 7D49     		ldr	r1, .L23+40
 195 00d2 0BA8     		add	r0, sp, #44
 196              	.LVL31:
 197 00d4 FFF7FEFF 		bl	sprintf
 198              	.LVL32:
 127:main.c        ****             UART_Debug_PutString(message); 
 199              		.loc 1 127 0
 200 00d8 0BA8     		add	r0, sp, #44
 201 00da FFF7FEFF 		bl	UART_Debug_PutString
 202              	.LVL33:
 203 00de 02E0     		b	.L11
 204              	.LVL34:
 205              	.L12:
 128:main.c        ****         }
 129:main.c        ****         else
 130:main.c        ****         {
 131:main.c        ****             UART_Debug_PutString("Error occurred during I2C comm to set control register 1\r\n");  
 206              		.loc 1 131 0
 207 00e0 7A48     		ldr	r0, .L23+44
 208              	.LVL35:
 209 00e2 FFF7FEFF 		bl	UART_Debug_PutString
ARM GAS  C:\Users\Mattia40\AppData\Local\Temp\ccBW5mND.s 			page 7


 210              	.LVL36:
 211              	.L11:
 132:main.c        ****         }
 133:main.c        ****     }
 134:main.c        ****     
 135:main.c        ****     /******************************************/
 136:main.c        ****     /*     Read Control Register 1 again      */
 137:main.c        ****     /******************************************/
 138:main.c        **** 
 139:main.c        ****     error = I2C_Peripheral_ReadRegister(LIS3DH_DEVICE_ADDRESS,
 212              		.loc 1 139 0
 213 00e6 0DF12902 		add	r2, sp, #41
 214 00ea 2021     		movs	r1, #32
 215 00ec 1820     		movs	r0, #24
 216 00ee FFF7FEFF 		bl	I2C_Peripheral_ReadRegister
 217              	.LVL37:
 140:main.c        ****                                         LIS3DH_CTRL_REG1,
 141:main.c        ****                                         &ctrl_reg1);
 142:main.c        ****     
 143:main.c        ****     if (error == NO_ERROR)
 218              		.loc 1 143 0
 219 00f2 48B9     		cbnz	r0, .L13
 144:main.c        ****     {
 145:main.c        ****         sprintf(message, "CONTROL REGISTER 1 after overwrite operation: 0x%02X\r\n", ctrl_reg1);
 220              		.loc 1 145 0
 221 00f4 9DF82920 		ldrb	r2, [sp, #41]	@ zero_extendqisi2
 222 00f8 7549     		ldr	r1, .L23+48
 223 00fa 0BA8     		add	r0, sp, #44
 224              	.LVL38:
 225 00fc FFF7FEFF 		bl	sprintf
 226              	.LVL39:
 146:main.c        ****         UART_Debug_PutString(message); 
 227              		.loc 1 146 0
 228 0100 0BA8     		add	r0, sp, #44
 229 0102 FFF7FEFF 		bl	UART_Debug_PutString
 230              	.LVL40:
 231 0106 02E0     		b	.L14
 232              	.LVL41:
 233              	.L13:
 147:main.c        ****     }
 148:main.c        ****     else
 149:main.c        ****     {
 150:main.c        ****         UART_Debug_PutString("Error occurred during I2C comm to read control register 1\r\n");   
 234              		.loc 1 150 0
 235 0108 6D48     		ldr	r0, .L23+32
 236              	.LVL42:
 237 010a FFF7FEFF 		bl	UART_Debug_PutString
 238              	.LVL43:
 239              	.L14:
 151:main.c        ****     }
 152:main.c        ****     
 153:main.c        ****         /******************************************/
 154:main.c        ****     /*     Read Control Register 4    */
 155:main.c        ****     /******************************************/
 156:main.c        ****     
 157:main.c        ****     uint8_t ctrl_reg4;
 158:main.c        **** 
ARM GAS  C:\Users\Mattia40\AppData\Local\Temp\ccBW5mND.s 			page 8


 159:main.c        ****     error = I2C_Peripheral_ReadRegister(LIS3DH_DEVICE_ADDRESS,
 240              		.loc 1 159 0
 241 010e 0AAA     		add	r2, sp, #40
 242 0110 2321     		movs	r1, #35
 243 0112 1820     		movs	r0, #24
 244 0114 FFF7FEFF 		bl	I2C_Peripheral_ReadRegister
 245              	.LVL44:
 160:main.c        ****                                         LIS3DH_CTRL_REG4,
 161:main.c        ****                                         &ctrl_reg4);
 162:main.c        ****     
 163:main.c        ****     if (error == NO_ERROR)
 246              		.loc 1 163 0
 247 0118 48B9     		cbnz	r0, .L15
 164:main.c        ****     {
 165:main.c        ****         sprintf(message, "CONTROL REGISTER 4: 0x%02X\r\n", ctrl_reg4);
 248              		.loc 1 165 0
 249 011a 9DF82820 		ldrb	r2, [sp, #40]	@ zero_extendqisi2
 250 011e 6D49     		ldr	r1, .L23+52
 251 0120 0BA8     		add	r0, sp, #44
 252              	.LVL45:
 253 0122 FFF7FEFF 		bl	sprintf
 254              	.LVL46:
 166:main.c        ****         UART_Debug_PutString(message); 
 255              		.loc 1 166 0
 256 0126 0BA8     		add	r0, sp, #44
 257 0128 FFF7FEFF 		bl	UART_Debug_PutString
 258              	.LVL47:
 259 012c 02E0     		b	.L16
 260              	.LVL48:
 261              	.L15:
 167:main.c        ****     }
 168:main.c        ****     else
 169:main.c        ****     {
 170:main.c        ****         UART_Debug_PutString("Error occurred during I2C comm to read control register4\r\n");   
 262              		.loc 1 170 0
 263 012e 6A48     		ldr	r0, .L23+56
 264              	.LVL49:
 265 0130 FFF7FEFF 		bl	UART_Debug_PutString
 266              	.LVL50:
 267              	.L16:
 171:main.c        ****     }
 172:main.c        ****     
 173:main.c        ****     
 174:main.c        ****     ctrl_reg4 = LIS3DH_CTRL_REG4_BDU_ACTIVE; 
 268              		.loc 1 174 0
 269 0134 9822     		movs	r2, #152
 270 0136 18AC     		add	r4, sp, #96
 271              	.LVL51:
 272 0138 04F8382D 		strb	r2, [r4, #-56]!
 175:main.c        ****     
 176:main.c        ****     error = I2C_Peripheral_WriteRegister(LIS3DH_DEVICE_ADDRESS,
 273              		.loc 1 176 0
 274 013c 2321     		movs	r1, #35
 275 013e 1820     		movs	r0, #24
 276 0140 FFF7FEFF 		bl	I2C_Peripheral_WriteRegister
 277              	.LVL52:
 177:main.c        ****                                          LIS3DH_CTRL_REG4,
ARM GAS  C:\Users\Mattia40\AppData\Local\Temp\ccBW5mND.s 			page 9


 178:main.c        ****                                          ctrl_reg4);
 179:main.c        ****     
 180:main.c        ****     error = I2C_Peripheral_ReadRegister(LIS3DH_DEVICE_ADDRESS,
 278              		.loc 1 180 0
 279 0144 2246     		mov	r2, r4
 280 0146 2321     		movs	r1, #35
 281 0148 1820     		movs	r0, #24
 282 014a FFF7FEFF 		bl	I2C_Peripheral_ReadRegister
 283              	.LVL53:
 181:main.c        ****                                         LIS3DH_CTRL_REG4,
 182:main.c        ****                                         &ctrl_reg4);
 183:main.c        ****     
 184:main.c        ****     
 185:main.c        ****     if (error == NO_ERROR)
 284              		.loc 1 185 0
 285 014e 48B9     		cbnz	r0, .L17
 186:main.c        ****     {
 187:main.c        ****         sprintf(message, "CONTROL REGISTER 4 after being updated: 0x%02X\r\n", ctrl_reg4);
 286              		.loc 1 187 0
 287 0150 9DF82820 		ldrb	r2, [sp, #40]	@ zero_extendqisi2
 288 0154 6149     		ldr	r1, .L23+60
 289 0156 0BA8     		add	r0, sp, #44
 290              	.LVL54:
 291 0158 FFF7FEFF 		bl	sprintf
 292              	.LVL55:
 188:main.c        ****         UART_Debug_PutString(message); 
 293              		.loc 1 188 0
 294 015c 0BA8     		add	r0, sp, #44
 295 015e FFF7FEFF 		bl	UART_Debug_PutString
 296              	.LVL56:
 297 0162 02E0     		b	.L18
 298              	.LVL57:
 299              	.L17:
 189:main.c        ****     }
 190:main.c        ****     else
 191:main.c        ****     {
 192:main.c        ****         UART_Debug_PutString("Error occurred during I2C comm to read control register4\r\n");   
 300              		.loc 1 192 0
 301 0164 5C48     		ldr	r0, .L23+56
 302              	.LVL58:
 303 0166 FFF7FEFF 		bl	UART_Debug_PutString
 304              	.LVL59:
 305              	.L18:
 193:main.c        ****     }
 194:main.c        ****     
 195:main.c        ****      
 196:main.c        ****     
 197:main.c        ****     int16_t OutX;//used to merge the two uint8_t value from the array XYZData relative to the x dir
 198:main.c        ****     int16_t OutY;//used to merge the two uint8_t value from the array XYZData relative to the y dir
 199:main.c        ****     int16_t OutZ;//used to merge the two uint8_t value from the array XYZData relative to the z dir
 200:main.c        ****     float32 OutXfloat;//used to save data of x acceleration with decimals
 201:main.c        ****     float32 OutYfloat;//used to save data of y acceleration with decimals
 202:main.c        ****     float32 OutZfloat;//used to save data of z acceleration with decimals
 203:main.c        ****     uint8_t header = 0xA0;//header for UART comunication
 204:main.c        ****     uint8_t footer = 0xC0;//tail for UART comunication 
 205:main.c        ****     uint8_t XYZData[6];//Array used to read data
 206:main.c        ****     uint8_t register_count=5;//it is 5--> we need to read six value, from *(data) to  *(data+5)
ARM GAS  C:\Users\Mattia40\AppData\Local\Temp\ccBW5mND.s 			page 10


 207:main.c        ****     uint8_t OutArrayFloat[14];//array to be sent through UART
 208:main.c        **** 
 209:main.c        ****     OutArrayFloat[0] = header;
 306              		.loc 1 209 0
 307 016a A023     		movs	r3, #160
 308 016c 8DF81030 		strb	r3, [sp, #16]
 210:main.c        ****     OutArrayFloat[13] = footer;
 309              		.loc 1 210 0
 310 0170 C023     		movs	r3, #192
 311 0172 8DF81D30 		strb	r3, [sp, #29]
 312              	.L19:
 211:main.c        ****     
 212:main.c        ****     uint8_t accx[sizeof(float)];//useful to send float as uint8_t
 213:main.c        ****     uint8_t accy[sizeof(float)];//useful to send float as uint8_t
 214:main.c        ****     uint8_t accz[sizeof(float)];//useful to send float as uint8_t
 215:main.c        ****     
 216:main.c        ****     for(;;)
 217:main.c        ****     {
 218:main.c        ****         //verify new Data is available using StatusReg information
 219:main.c        ****         error = I2C_Peripheral_ReadRegister(LIS3DH_DEVICE_ADDRESS,
 313              		.loc 1 219 0
 314 0176 0DF12A02 		add	r2, sp, #42
 315 017a 2721     		movs	r1, #39
 316 017c 1820     		movs	r0, #24
 317 017e FFF7FEFF 		bl	I2C_Peripheral_ReadRegister
 318              	.LVL60:
 220:main.c        ****                                         LIS3DH_STATUS_REG,
 221:main.c        ****                                         &status_register);
 222:main.c        ****         
 223:main.c        ****         // only if there are new Data  available, we comunicate with the UART
 224:main.c        ****         if(status_register & (1<<LIS3DH_STATUS_REG_ACTIVE_ZYXDA))
 319              		.loc 1 224 0
 320 0182 9DF82A30 		ldrb	r3, [sp, #42]	@ zero_extendqisi2
 321 0186 13F0080F 		tst	r3, #8
 322 018a F4D0     		beq	.L19
 225:main.c        ****         {
 226:main.c        ****             
 227:main.c        ****             //Use of multi-read function to read 6 consequent registers starting from OUT_X_L
 228:main.c        ****             error = I2C_Peripheral_ReadRegisterMulti(LIS3DH_DEVICE_ADDRESS,
 323              		.loc 1 228 0
 324 018c 08AB     		add	r3, sp, #32
 325 018e 0522     		movs	r2, #5
 326 0190 2821     		movs	r1, #40
 327 0192 1820     		movs	r0, #24
 328 0194 FFF7FEFF 		bl	I2C_Peripheral_ReadRegisterMulti
 329              	.LVL61:
 229:main.c        ****                                             LIS3DH_OUT_X_L,
 230:main.c        ****                                             register_count,
 231:main.c        ****                                             &XYZData[0]);
 232:main.c        ****            
 233:main.c        ****             if(error == NO_ERROR)
 330              		.loc 1 233 0
 331 0198 0028     		cmp	r0, #0
 332 019a ECD1     		bne	.L19
 234:main.c        ****             {
 235:main.c        ****                 //x direction
 236:main.c        **** 
ARM GAS  C:\Users\Mattia40\AppData\Local\Temp\ccBW5mND.s 			page 11


 237:main.c        ****                 OutX = (int16)((XYZData[0] | (XYZData[1]<<8)))>>4;//merge data into a single int16 
 333              		.loc 1 237 0
 334 019c 9DF82030 		ldrb	r3, [sp, #32]	@ zero_extendqisi2
 335 01a0 9DF82100 		ldrb	r0, [sp, #33]	@ zero_extendqisi2
 336              	.LVL62:
 337 01a4 43EA0020 		orr	r0, r3, r0, lsl #8
 338              	.LVL63:
 238:main.c        ****                 
 239:main.c        ****                 OutXfloat=(float32)OutX;//cast float
 339              		.loc 1 239 0
 340 01a8 40F30B10 		sbfx	r0, r0, #4, #12
 341              	.LVL64:
 342 01ac FFF7FEFF 		bl	__aeabi_i2f
 343              	.LVL65:
 240:main.c        ****                 
 241:main.c        ****                 OutXfloat=(OutXfloat*CONSTANT_G)/DATA_RANGE;//conversion in m/s^2
 344              		.loc 1 241 0
 345 01b0 FFF7FEFF 		bl	__aeabi_f2d
 346              	.LVL66:
 347 01b4 3AA3     		adr	r3, .L23
 348 01b6 D3E90023 		ldrd	r2, [r3]
 349 01ba FFF7FEFF 		bl	__aeabi_dmul
 350              	.LVL67:
 351 01be 0022     		movs	r2, #0
 352 01c0 474B     		ldr	r3, .L23+64
 353 01c2 FFF7FEFF 		bl	__aeabi_dmul
 354              	.LVL68:
 355 01c6 FFF7FEFF 		bl	__aeabi_d2f
 356              	.LVL69:
 357 01ca 0546     		mov	r5, r0
 358              	.LVL70:
 242:main.c        ****                 
 243:main.c        ****                 //y direction                
 244:main.c        ****                 
 245:main.c        ****                 OutY = (int16)((XYZData[2] | (XYZData[3]<<8)))>>4;//merge data into a single int16 
 359              		.loc 1 245 0
 360 01cc 9DF82230 		ldrb	r3, [sp, #34]	@ zero_extendqisi2
 361 01d0 9DF82300 		ldrb	r0, [sp, #35]	@ zero_extendqisi2
 362              	.LVL71:
 363 01d4 43EA0020 		orr	r0, r3, r0, lsl #8
 364              	.LVL72:
 246:main.c        ****                 
 247:main.c        ****                 OutYfloat=(float32)OutY;//cast float
 365              		.loc 1 247 0
 366 01d8 40F30B10 		sbfx	r0, r0, #4, #12
 367              	.LVL73:
 368 01dc FFF7FEFF 		bl	__aeabi_i2f
 369              	.LVL74:
 248:main.c        ****                 
 249:main.c        ****                 OutYfloat=(OutYfloat*CONSTANT_G)/DATA_RANGE;//conversion in m/s^2
 370              		.loc 1 249 0
 371 01e0 FFF7FEFF 		bl	__aeabi_f2d
 372              	.LVL75:
 373 01e4 2EA3     		adr	r3, .L23
 374 01e6 D3E90023 		ldrd	r2, [r3]
 375 01ea FFF7FEFF 		bl	__aeabi_dmul
 376              	.LVL76:
ARM GAS  C:\Users\Mattia40\AppData\Local\Temp\ccBW5mND.s 			page 12


 377 01ee 0022     		movs	r2, #0
 378 01f0 3B4B     		ldr	r3, .L23+64
 379 01f2 FFF7FEFF 		bl	__aeabi_dmul
 380              	.LVL77:
 381 01f6 FFF7FEFF 		bl	__aeabi_d2f
 382              	.LVL78:
 383 01fa 0446     		mov	r4, r0
 384              	.LVL79:
 250:main.c        ****                 
 251:main.c        ****                 //z direction
 252:main.c        ****                 
 253:main.c        ****                 OutZ = (int16)((XYZData[4] | (XYZData[5]<<8)))>>4;//merge data into a single int16 
 385              		.loc 1 253 0
 386 01fc 9DF82430 		ldrb	r3, [sp, #36]	@ zero_extendqisi2
 387 0200 9DF82500 		ldrb	r0, [sp, #37]	@ zero_extendqisi2
 388              	.LVL80:
 389 0204 43EA0020 		orr	r0, r3, r0, lsl #8
 390              	.LVL81:
 254:main.c        ****                 
 255:main.c        ****                 OutZfloat=(float32)OutZ;//cast float
 391              		.loc 1 255 0
 392 0208 40F30B10 		sbfx	r0, r0, #4, #12
 393              	.LVL82:
 394 020c FFF7FEFF 		bl	__aeabi_i2f
 395              	.LVL83:
 256:main.c        ****        
 257:main.c        ****                 OutZfloat=(OutZfloat*CONSTANT_G)/DATA_RANGE;//conversion in m/s^2
 396              		.loc 1 257 0
 397 0210 FFF7FEFF 		bl	__aeabi_f2d
 398              	.LVL84:
 399 0214 22A3     		adr	r3, .L23
 400 0216 D3E90023 		ldrd	r2, [r3]
 401 021a FFF7FEFF 		bl	__aeabi_dmul
 402              	.LVL85:
 403 021e 0022     		movs	r2, #0
 404 0220 2F4B     		ldr	r3, .L23+64
 405 0222 FFF7FEFF 		bl	__aeabi_dmul
 406              	.LVL86:
 407 0226 FFF7FEFF 		bl	__aeabi_d2f
 408              	.LVL87:
 258:main.c        ****                 
 259:main.c        ****                 
 260:main.c        ****                 /* 
 261:main.c        ****                 *   We could multiply the float by 1000 or more to save at least 3 decimals and the
 262:main.c        ****                 *   then we can take advantage of the scale in the variable settings of the bridge 
 263:main.c        ****                 *   decimals
 264:main.c        ****                 *   BUT I CHOOSE A DIFFERENT WAY-->WITH THE FOLLOWING CODE,WE ARE ABLE TO SEND FLOA
 265:main.c        ****                 *   BRIDGE CONTROL PANEL DIRECTLY WITHOUT USING THE SCALE IN THE VARIABLE SETTINGS
 266:main.c        ****                 */
 267:main.c        ****                 *(float*)(accx)=OutXfloat;//save the float into the uint8_t through the pointer: ta
 409              		.loc 1 267 0
 410 022a 0395     		str	r5, [sp, #12]	@ float
 268:main.c        ****                 *(float*)(accy)=OutYfloat;//save the float into the uint8_t through the pointer: ta
 411              		.loc 1 268 0
 412 022c 0294     		str	r4, [sp, #8]	@ float
 269:main.c        ****                 *(float*)(accz)=OutZfloat;//save the float into the uint8_t through the pointer: ta
 413              		.loc 1 269 0
ARM GAS  C:\Users\Mattia40\AppData\Local\Temp\ccBW5mND.s 			page 13


 414 022e 0190     		str	r0, [sp, #4]	@ float
 270:main.c        ****                 
 271:main.c        **** 
 272:main.c        ****                 OutArrayFloat[1] = accx[0]  ;//copy of the LSB of the acc in the x direction into t
 415              		.loc 1 272 0
 416 0230 9DF80C30 		ldrb	r3, [sp, #12]	@ zero_extendqisi2
 417 0234 8DF81130 		strb	r3, [sp, #17]
 273:main.c        ****                 OutArrayFloat[2] = accx[1] ;
 418              		.loc 1 273 0
 419 0238 9DF80D30 		ldrb	r3, [sp, #13]	@ zero_extendqisi2
 420 023c 8DF81230 		strb	r3, [sp, #18]
 274:main.c        ****                 OutArrayFloat[3] = accx[2] ;
 421              		.loc 1 274 0
 422 0240 9DF80E30 		ldrb	r3, [sp, #14]	@ zero_extendqisi2
 423 0244 8DF81330 		strb	r3, [sp, #19]
 275:main.c        ****                 OutArrayFloat[4] = accx[3] ;//copy of the MSB of the acc in the x direction into th
 424              		.loc 1 275 0
 425 0248 9DF80F30 		ldrb	r3, [sp, #15]	@ zero_extendqisi2
 426 024c 8DF81430 		strb	r3, [sp, #20]
 276:main.c        ****                 OutArrayFloat[5] = accy[0] ;//copy of the LSB of the acc in the y direction into th
 427              		.loc 1 276 0
 428 0250 9DF80830 		ldrb	r3, [sp, #8]	@ zero_extendqisi2
 429 0254 8DF81530 		strb	r3, [sp, #21]
 277:main.c        ****                 OutArrayFloat[6] = accy[1] ;
 430              		.loc 1 277 0
 431 0258 9DF80930 		ldrb	r3, [sp, #9]	@ zero_extendqisi2
 432 025c 8DF81630 		strb	r3, [sp, #22]
 278:main.c        ****                 OutArrayFloat[7] = accy[2] ;
 433              		.loc 1 278 0
 434 0260 9DF80A30 		ldrb	r3, [sp, #10]	@ zero_extendqisi2
 435 0264 8DF81730 		strb	r3, [sp, #23]
 279:main.c        ****                 OutArrayFloat[8] = accy[3] ;//copy of the MSB of the acc in the y direction into th
 436              		.loc 1 279 0
 437 0268 9DF80B30 		ldrb	r3, [sp, #11]	@ zero_extendqisi2
 438 026c 8DF81830 		strb	r3, [sp, #24]
 280:main.c        ****                 OutArrayFloat[9] = accz[0] ;//copy of the LSB of the acc in the z direction into th
 439              		.loc 1 280 0
 440 0270 9DF80430 		ldrb	r3, [sp, #4]	@ zero_extendqisi2
 441 0274 8DF81930 		strb	r3, [sp, #25]
 281:main.c        ****                 OutArrayFloat[10] =accz[1] ;
 442              		.loc 1 281 0
 443 0278 9DF80530 		ldrb	r3, [sp, #5]	@ zero_extendqisi2
 444 027c 8DF81A30 		strb	r3, [sp, #26]
 282:main.c        ****                 OutArrayFloat[11] =accz[2] ;
 445              		.loc 1 282 0
 446 0280 9DF80630 		ldrb	r3, [sp, #6]	@ zero_extendqisi2
 447 0284 8DF81B30 		strb	r3, [sp, #27]
 283:main.c        ****                 OutArrayFloat[12] =accz[3] ;//copy of the MSB of the acc in the z direction into th
 448              		.loc 1 283 0
 449 0288 9DF80730 		ldrb	r3, [sp, #7]	@ zero_extendqisi2
 450 028c 8DF81C30 		strb	r3, [sp, #28]
 284:main.c        ****                 UART_Debug_PutArray(OutArrayFloat, 14);
 451              		.loc 1 284 0
 452 0290 0E21     		movs	r1, #14
 453 0292 04A8     		add	r0, sp, #16
 454              	.LVL88:
 455 0294 FFF7FEFF 		bl	UART_Debug_PutArray
ARM GAS  C:\Users\Mattia40\AppData\Local\Temp\ccBW5mND.s 			page 14


 456              	.LVL89:
 457 0298 6DE7     		b	.L19
 458              	.L24:
 459 029a 00BFAFF3 		.align	3
 459      0080
 460              	.L23:
 461 02a0 77BE9F1A 		.word	446676599
 462 02a4 2F9D2340 		.word	1076075823
 463 02a8 00000000 		.word	.LC0
 464 02ac 20000000 		.word	.LC1
 465 02b0 48000000 		.word	.LC2
 466 02b4 6C000000 		.word	.LC3
 467 02b8 88000000 		.word	.LC4
 468 02bc C4000000 		.word	.LC5
 469 02c0 E4000000 		.word	.LC6
 470 02c4 20010000 		.word	.LC7
 471 02c8 3C010000 		.word	.LC8
 472 02cc 74010000 		.word	.LC9
 473 02d0 B0010000 		.word	.LC10
 474 02d4 E8010000 		.word	.LC11
 475 02d8 08020000 		.word	.LC12
 476 02dc 44020000 		.word	.LC13
 477 02e0 0000603F 		.word	1063256064
 478              		.cfi_endproc
 479              	.LFE64:
 480              		.size	main, .-main
 481              		.section	.rodata.str1.4,"aMS",%progbits,1
 482              		.align	2
 483              	.LC0:
 484 0000 44657669 		.ascii	"Device 0x%02X is connected\015\012\000"
 484      63652030 
 484      78253032 
 484      58206973 
 484      20636F6E 
 485 001d 000000   		.space	3
 486              	.LC1:
 487 0020 57484F20 		.ascii	"WHO AM I REG: 0x%02X [Expected: 0x33]\015\012\000"
 487      414D2049 
 487      20524547 
 487      3A203078 
 487      25303258 
 488              	.LC2:
 489 0048 4572726F 		.ascii	"Error occurred during I2C comm\015\012\000"
 489      72206F63 
 489      63757272 
 489      65642064 
 489      7572696E 
 490 0069 000000   		.space	3
 491              	.LC3:
 492 006c 53544154 		.ascii	"STATUS REGISTER: 0x%02X\015\012\000"
 492      55532052 
 492      45474953 
 492      5445523A 
 492      20307825 
 493 0086 0000     		.space	2
 494              	.LC4:
 495 0088 4572726F 		.ascii	"Error occurred during I2C comm to read status regis"
ARM GAS  C:\Users\Mattia40\AppData\Local\Temp\ccBW5mND.s 			page 15


 495      72206F63 
 495      63757272 
 495      65642064 
 495      7572696E 
 496 00bb 7465720D 		.ascii	"ter\015\012\000"
 496      0A00
 497 00c1 000000   		.space	3
 498              	.LC5:
 499 00c4 434F4E54 		.ascii	"CONTROL REGISTER 1: 0x%02X\015\012\000"
 499      524F4C20 
 499      52454749 
 499      53544552 
 499      20313A20 
 500 00e1 000000   		.space	3
 501              	.LC6:
 502 00e4 4572726F 		.ascii	"Error occurred during I2C comm to read control regi"
 502      72206F63 
 502      63757272 
 502      65642064 
 502      7572696E 
 503 0117 73746572 		.ascii	"ster 1\015\012\000"
 503      20310D0A 
 503      00
 504              	.LC7:
 505 0120 0D0A5772 		.ascii	"\015\012Writing new values..\015\012\000"
 505      6974696E 
 505      67206E65 
 505      77207661 
 505      6C756573 
 506 0139 000000   		.space	3
 507              	.LC8:
 508 013c 434F4E54 		.ascii	"CONTROL REGISTER 1 successfully written as: 0x%02X\015"
 508      524F4C20 
 508      52454749 
 508      53544552 
 508      20312073 
 509 016f 0A00     		.ascii	"\012\000"
 510 0171 000000   		.space	3
 511              	.LC9:
 512 0174 4572726F 		.ascii	"Error occurred during I2C comm to set control regis"
 512      72206F63 
 512      63757272 
 512      65642064 
 512      7572696E 
 513 01a7 74657220 		.ascii	"ter 1\015\012\000"
 513      310D0A00 
 514 01af 00       		.space	1
 515              	.LC10:
 516 01b0 434F4E54 		.ascii	"CONTROL REGISTER 1 after overwrite operation: 0x%02"
 516      524F4C20 
 516      52454749 
 516      53544552 
 516      20312061 
 517 01e3 580D0A00 		.ascii	"X\015\012\000"
 518 01e7 00       		.space	1
 519              	.LC11:
 520 01e8 434F4E54 		.ascii	"CONTROL REGISTER 4: 0x%02X\015\012\000"
ARM GAS  C:\Users\Mattia40\AppData\Local\Temp\ccBW5mND.s 			page 16


 520      524F4C20 
 520      52454749 
 520      53544552 
 520      20343A20 
 521 0205 000000   		.space	3
 522              	.LC12:
 523 0208 4572726F 		.ascii	"Error occurred during I2C comm to read control regi"
 523      72206F63 
 523      63757272 
 523      65642064 
 523      7572696E 
 524 023b 73746572 		.ascii	"ster4\015\012\000"
 524      340D0A00 
 525 0243 00       		.space	1
 526              	.LC13:
 527 0244 434F4E54 		.ascii	"CONTROL REGISTER 4 after being updated: 0x%02X\015\012"
 527      524F4C20 
 527      52454749 
 527      53544552 
 527      20342061 
 528 0274 00       		.ascii	"\000"
 529              		.text
 530              	.Letext0:
 531              		.file 2 "c:\\program files (x86)\\cypress\\psoc creator\\4.3\\psoc creator\\import\\gnu\\arm\\5.4.
 532              		.file 3 "c:\\program files (x86)\\cypress\\psoc creator\\4.3\\psoc creator\\import\\gnu\\arm\\5.4.
 533              		.file 4 "Generated_Source\\PSoC5/cytypes.h"
 534              		.file 5 "ErrorCodes.h"
 535              		.file 6 "I2C_Interface.h"
 536              		.file 7 "c:\\program files (x86)\\cypress\\psoc creator\\4.3\\psoc creator\\import\\gnu\\arm\\5.4.
 537              		.file 8 "Generated_Source\\PSoC5/UART_Debug.h"
 538              		.file 9 "Generated_Source\\PSoC5/CyLib.h"
 539              		.file 10 "Generated_Source\\PSoC5/core_cm3.h"